target datalayout = "e-m:e-p270:32:32-p271:32:32-p272:64:64-i64:64-i128:128-f80:128-n8:16:32:64-S128"
target triple = "x86_64-pc-linux-gnu"

%struct.ret_data_info = type { i16, i32, ptr, ptr }

@.str.31 = private unnamed_addr constant [45 x i8] c"stepmgr failed to send message %s: rc=%d(%s)\00", align 1

; Function Attrs: nounwind uwtable
define internal i32 @_foreach_ret_data_info(ptr noundef %0, ptr noundef %1) #0 {
  %3 = alloca i32, align 4
  %4 = alloca ptr, align 8
  %5 = alloca ptr, align 8
  %6 = alloca i32, align 4
  %7 = alloca ptr, align 8
  %8 = alloca i32, align 4
  store ptr %0, ptr %4, align 8
  store ptr %1, ptr %5, align 8
  call void @llvm.lifetime.start.p0(i64 4, ptr %6) #9
  call void @llvm.lifetime.start.p0(i64 8, ptr %7) #9
  %9 = load ptr, ptr %4, align 8
  store ptr %9, ptr %7, align 8
  %10 = load ptr, ptr %7, align 8
  %11 = getelementptr inbounds nuw %struct.ret_data_info, ptr %10, i32 0, i32 0
  %12 = load i16, ptr %11, align 8
  %13 = zext i16 %12 to i32
  %14 = load ptr, ptr %7, align 8
  %15 = getelementptr inbounds nuw %struct.ret_data_info, ptr %14, i32 0, i32 3
  %16 = load ptr, ptr %15, align 8
  %17 = call i32 @slurm_get_return_code(i32 noundef %13, ptr noundef %16)
  store i32 %17, ptr %6, align 4
  %18 = icmp ne i32 %17, 0
  br i1 %18, label %19, label %28

19:                                               ; preds = %2
  %20 = load ptr, ptr %7, align 8
  %21 = getelementptr inbounds nuw %struct.ret_data_info, ptr %20, i32 0, i32 0
  %22 = load i16, ptr %21, align 8
  %23 = call ptr @rpc_num2string(i16 noundef zeroext %22)
  %24 = load i32, ptr %6, align 4
  %25 = load i32, ptr %6, align 4
  %26 = call ptr @slurm_strerror(i32 noundef %25)
  %27 = call i32 (ptr, ...) @error(ptr noundef @.str.31, ptr noundef %23, i32 noundef %24, ptr noundef %26)
  store i32 -1, ptr %3, align 4
  store i32 1, ptr %8, align 4
  br label %29

28:                                               ; preds = %2
  store i32 0, ptr %3, align 4
  store i32 1, ptr %8, align 4
  br label %29

29:                                               ; preds = %28, %19
  call void @llvm.lifetime.end.p0(i64 8, ptr %7) #9
  call void @llvm.lifetime.end.p0(i64 4, ptr %6) #9
  %30 = load i32, ptr %3, align 4
  ret i32 %30
}