; Function Attrs: nounwind uwtable
define internal range(i32 -1, 1) i32 @_foreach_ret_data_info(ptr noundef readonly captures(none) %0, ptr readnone captures(none) %1) #1 {
  %3 = load i16, ptr %0, align 8
  %4 = zext i16 %3 to i32
  %5 = getelementptr inbounds nuw i8, ptr %0, i64 16
  %6 = load ptr, ptr %5, align 8
  %7 = tail call i32 @slurm_get_return_code(i32 noundef %4, ptr noundef %6) #15
  %.not = icmp eq i32 %7, 0
  br i1 %.not, label %13, label %8

8:                                                ; preds = %2
  %9 = load i16, ptr %0, align 8
  %10 = tail call ptr @rpc_num2string(i16 noundef zeroext %9) #15
  %11 = tail call ptr @slurm_strerror(i32 noundef %7) #15
  %12 = tail call i32 (ptr, ...) @error(ptr noundef nonnull @.str.31, ptr noundef %10, i32 noundef %7, ptr noundef %11) #15
  br label %13

13:                                               ; preds = %2, %8
  %.0 = phi i32 [ -1, %8 ], [ 0, %2 ]
  ret i32 %.0
}